; ModuleID = '35/1095.c'
source_filename = "35/1095.c"
target datalayout = "e-m:e-p270:32:32-p271:32:32-p272:64:64-i64:64-f80:128-n8:16:32:64-S128"
target triple = "x86_64-pc-linux-gnu"

@.str = private unnamed_addr constant [7 x i8] c"%d%c%d\00", align 1
@.str.1 = private unnamed_addr constant [3 x i8] c"%d\00", align 1
@.str.2 = private unnamed_addr constant [6 x i8] c"%d+%d\00", align 1
@.str.3 = private unnamed_addr constant [3 x i8] c"No\00", align 1

; Function Attrs: noinline nounwind uwtable
define dso_local i32 @main() #0 {
  %1 = alloca i32, align 4
  %2 = alloca i32, align 4
  %3 = alloca i32, align 4
  %4 = alloca i32, align 4
  %5 = alloca i32, align 4
  %6 = alloca [7 x [7 x i32]], align 16
  %7 = alloca [7 x i32], align 16
  %8 = alloca i32, align 4
  %9 = alloca i8, align 1
  store i32 0, i32* %1, align 4
  %10 = call i32 (i8*, ...) @__isoc99_scanf(i8* getelementptr inbounds ([7 x i8], [7 x i8]* @.str, i64 0, i64 0), i32* %4, i8* %9, i32* %5)
  store i32 0, i32* %2, align 4
  br label %11

11:                                               ; preds = %34, %0
  %12 = load i32, i32* %2, align 4
  %13 = load i32, i32* %4, align 4
  %14 = sub nsw i32 %13, 1
  %15 = icmp sle i32 %12, %14
  br i1 %15, label %16, label %37

16:                                               ; preds = %11
  store i32 0, i32* %3, align 4
  br label %17

17:                                               ; preds = %30, %16
  %18 = load i32, i32* %3, align 4
  %19 = load i32, i32* %5, align 4
  %20 = sub nsw i32 %19, 1
  %21 = icmp sle i32 %18, %20
  br i1 %21, label %22, label %33

22:                                               ; preds = %17
  %23 = load i32, i32* %2, align 4
  %24 = sext i32 %23 to i64
  %25 = getelementptr inbounds [7 x [7 x i32]], [7 x [7 x i32]]* %6, i64 0, i64 %24
  %26 = load i32, i32* %3, align 4
  %27 = sext i32 %26 to i64
  %28 = getelementptr inbounds [7 x i32], [7 x i32]* %25, i64 0, i64 %27
  %29 = call i32 (i8*, ...) @__isoc99_scanf(i8* getelementptr inbounds ([3 x i8], [3 x i8]* @.str.1, i64 0, i64 0), i32* %28)
  br label %30

30:                                               ; preds = %22
  %31 = load i32, i32* %3, align 4
  %32 = add nsw i32 %31, 1
  store i32 %32, i32* %3, align 4
  br label %17

33:                                               ; preds = %17
  br label %34

34:                                               ; preds = %33
  %35 = load i32, i32* %2, align 4
  %36 = add nsw i32 %35, 1
  store i32 %36, i32* %2, align 4
  br label %11

37:                                               ; preds = %11
  store i32 0, i32* %2, align 4
  br label %38

38:                                               ; preds = %124, %37
  %39 = load i32, i32* %2, align 4
  %40 = load i32, i32* %4, align 4
  %41 = sub nsw i32 %40, 1
  %42 = icmp sle i32 %39, %41
  br i1 %42, label %43, label %127

43:                                               ; preds = %38
  store i32 0, i32* %8, align 4
  %44 = load i32, i32* %2, align 4
  %45 = sext i32 %44 to i64
  %46 = getelementptr inbounds [7 x i32], [7 x i32]* %7, i64 0, i64 %45
  store i32 0, i32* %46, align 4
  store i32 1, i32* %3, align 4
  br label %47

47:                                               ; preds = %77, %43
  %48 = load i32, i32* %3, align 4
  %49 = load i32, i32* %5, align 4
  %50 = sub nsw i32 %49, 1
  %51 = icmp sle i32 %48, %50
  br i1 %51, label %52, label %80

52:                                               ; preds = %47
  %53 = load i32, i32* %2, align 4
  %54 = sext i32 %53 to i64
  %55 = getelementptr inbounds [7 x [7 x i32]], [7 x [7 x i32]]* %6, i64 0, i64 %54
  %56 = load i32, i32* %2, align 4
  %57 = sext i32 %56 to i64
  %58 = getelementptr inbounds [7 x i32], [7 x i32]* %7, i64 0, i64 %57
  %59 = load i32, i32* %58, align 4
  %60 = sext i32 %59 to i64
  %61 = getelementptr inbounds [7 x i32], [7 x i32]* %55, i64 0, i64 %60
  %62 = load i32, i32* %61, align 4
  %63 = load i32, i32* %2, align 4
  %64 = sext i32 %63 to i64
  %65 = getelementptr inbounds [7 x [7 x i32]], [7 x [7 x i32]]* %6, i64 0, i64 %64
  %66 = load i32, i32* %3, align 4
  %67 = sext i32 %66 to i64
  %68 = getelementptr inbounds [7 x i32], [7 x i32]* %65, i64 0, i64 %67
  %69 = load i32, i32* %68, align 4
  %70 = icmp slt i32 %62, %69
  br i1 %70, label %71, label %76

71:                                               ; preds = %52
  %72 = load i32, i32* %3, align 4
  %73 = load i32, i32* %2, align 4
  %74 = sext i32 %73 to i64
  %75 = getelementptr inbounds [7 x i32], [7 x i32]* %7, i64 0, i64 %74
  store i32 %72, i32* %75, align 4
  br label %76

76:                                               ; preds = %71, %52
  br label %77

77:                                               ; preds = %76
  %78 = load i32, i32* %3, align 4
  %79 = add nsw i32 %78, 1
  store i32 %79, i32* %3, align 4
  br label %47

80:                                               ; preds = %47
  store i32 0, i32* %3, align 4
  br label %81

81:                                               ; preds = %110, %80
  %82 = load i32, i32* %3, align 4
  %83 = load i32, i32* %4, align 4
  %84 = sub nsw i32 %83, 1
  %85 = icmp sle i32 %82, %84
  br i1 %85, label %86, label %113

86:                                               ; preds = %81
  %87 = load i32, i32* %3, align 4
  %88 = sext i32 %87 to i64
  %89 = getelementptr inbounds [7 x [7 x i32]], [7 x [7 x i32]]* %6, i64 0, i64 %88
  %90 = load i32, i32* %2, align 4
  %91 = sext i32 %90 to i64
  %92 = getelementptr inbounds [7 x i32], [7 x i32]* %7, i64 0, i64 %91
  %93 = load i32, i32* %92, align 4
  %94 = sext i32 %93 to i64
  %95 = getelementptr inbounds [7 x i32], [7 x i32]* %89, i64 0, i64 %94
  %96 = load i32, i32* %95, align 4
  %97 = load i32, i32* %2, align 4
  %98 = sext i32 %97 to i64
  %99 = getelementptr inbounds [7 x [7 x i32]], [7 x [7 x i32]]* %6, i64 0, i64 %98
  %100 = load i32, i32* %2, align 4
  %101 = sext i32 %100 to i64
  %102 = getelementptr inbounds [7 x i32], [7 x i32]* %7, i64 0, i64 %101
  %103 = load i32, i32* %102, align 4
  %104 = sext i32 %103 to i64
  %105 = getelementptr inbounds [7 x i32], [7 x i32]* %99, i64 0, i64 %104
  %106 = load i32, i32* %105, align 4
  %107 = icmp slt i32 %96, %106
  br i1 %107, label %108, label %109

108:                                              ; preds = %86
  store i32 1, i32* %8, align 4
  br label %109

109:                                              ; preds = %108, %86
  br label %110

110:                                              ; preds = %109
  %111 = load i32, i32* %3, align 4
  %112 = add nsw i32 %111, 1
  store i32 %112, i32* %3, align 4
  br label %81

113:                                              ; preds = %81
  %114 = load i32, i32* %8, align 4
  %115 = icmp eq i32 %114, 0
  br i1 %115, label %116, label %123

116:                                              ; preds = %113
  %117 = load i32, i32* %2, align 4
  %118 = load i32, i32* %2, align 4
  %119 = sext i32 %118 to i64
  %120 = getelementptr inbounds [7 x i32], [7 x i32]* %7, i64 0, i64 %119
  %121 = load i32, i32* %120, align 4
  %122 = call i32 (i8*, ...) @printf(i8* getelementptr inbounds ([6 x i8], [6 x i8]* @.str.2, i64 0, i64 0), i32 %117, i32 %121)
  br label %127

123:                                              ; preds = %113
  br label %124

124:                                              ; preds = %123
  %125 = load i32, i32* %2, align 4
  %126 = add nsw i32 %125, 1
  store i32 %126, i32* %2, align 4
  br label %38

127:                                              ; preds = %116, %38
  %128 = load i32, i32* %8, align 4
  %129 = icmp eq i32 %128, 1
  br i1 %129, label %130, label %132

130:                                              ; preds = %127
  %131 = call i32 (i8*, ...) @printf(i8* getelementptr inbounds ([3 x i8], [3 x i8]* @.str.3, i64 0, i64 0))
  br label %132

132:                                              ; preds = %130, %127
  ret i32 0
}

declare dso_local i32 @__isoc99_scanf(i8*, ...) #1

declare dso_local i32 @printf(i8*, ...) #1


!llvm.module.flags = !{!0}
!llvm.ident = !{!1}

!0 = !{i32 1, !"wchar_size", i32 4}
!1 = !{!"clang version 10.0.0-4ubuntu1 "}
